target datalayout = "e-m:e-p270:32:32-p271:32:32-p272:64:64-i64:64-i128:128-f80:128-n8:16:32:64-S128"
target triple = "x86_64-unknown-linux-gnu"

%"class.cvc5::internal::prop::SatLiteral" = type { i64 }
%"struct.cvc5::internal::Minisat::Lit" = type { i32 }
%"class.cvc5::internal::prop::MinisatSatSolver" = type { %"class.cvc5::internal::prop::CDCLTSatSolver", %"class.cvc5::internal::EnvObj", ptr, ptr, %"class.std::unordered_set", %"class.cvc5::internal::prop::MinisatSatSolver::Statistics" }
%"class.cvc5::internal::prop::CDCLTSatSolver" = type { %"class.cvc5::internal::prop::SatSolver" }
%"class.cvc5::internal::prop::SatSolver" = type { ptr }
%"class.cvc5::internal::EnvObj" = type { ptr, ptr }
%"class.std::unordered_set" = type { %"class.std::_Hashtable" }
%"class.std::_Hashtable" = type { ptr, i64, %"struct.std::__detail::_Hash_node_base", i64, %"struct.std::__detail::_Prime_rehash_policy", ptr }
%"struct.std::__detail::_Hash_node_base" = type { ptr }
%"struct.std::__detail::_Prime_rehash_policy" = type { float, i64 }
%"class.cvc5::internal::prop::MinisatSatSolver::Statistics" = type { %"class.cvc5::internal::ReferenceStat", %"class.cvc5::internal::ReferenceStat", %"class.cvc5::internal::ReferenceStat", %"class.cvc5::internal::ReferenceStat", %"class.cvc5::internal::ReferenceStat", %"class.cvc5::internal::ReferenceStat", %"class.cvc5::internal::ReferenceStat", %"class.cvc5::internal::ReferenceStat", %"class.cvc5::internal::ReferenceStat" }
%"class.cvc5::internal::ReferenceStat" = type { ptr }
%"class.cvc5::internal::Minisat::lbool" = type { i8 }
%"class.cvc5::internal::Minisat::vec.280" = type { ptr, i32, i32 }
%"class.cvc5::internal::Minisat::Solver" = type <{ %"class.cvc5::internal::EnvObj", ptr, ptr, i32, i32, i32, [4 x i8], %"class.std::unique_ptr.270", i8, [7 x i8], %"class.cvc5::internal::Minisat::vec", %"class.cvc5::internal::Minisat::vec.278", i8, i8, [6 x i8], %"class.cvc5::internal::Minisat::vec.279", %"class.cvc5::internal::Minisat::vec.280", i32, [4 x i8], double, double, double, double, i8, [3 x i8], i32, i32, i8, i8, [2 x i8], double, i32, [4 x i8], double, double, double, i32, [4 x i8], double, i64, i64, i64, i64, i64, i64, i64, i64, i64, i64, i64, i64, i8, [7 x i8], %"class.cvc5::internal::Minisat::vec.281", %"class.cvc5::internal::Minisat::vec.281", double, %"class.cvc5::internal::Minisat::vec.282", double, %"class.cvc5::internal::Minisat::OccLists", %"class.cvc5::internal::Minisat::vec.279", %"class.cvc5::internal::Minisat::vec.285", %"class.cvc5::internal::Minisat::vec.284", %"class.cvc5::internal::Minisat::vec.284", %"class.cvc5::internal::Minisat::vec.285", %"class.cvc5::internal::Minisat::vec.280", %"class.cvc5::internal::Minisat::vec.285", %"class.cvc5::internal::Minisat::vec.278", %"class.cvc5::internal::Minisat::vec.286", i32, i32, i64, %"class.cvc5::internal::Minisat::vec.280", %"class.cvc5::internal::Minisat::Heap", double, i8, [7 x i8], %"class.cvc5::internal::Minisat::ClauseAllocator", %"class.cvc5::internal::Minisat::vec.278", %"class.cvc5::internal::Minisat::vec.284", %"class.cvc5::internal::Minisat::vec.280", %"class.cvc5::internal::Minisat::vec.280", %"class.cvc5::internal::Minisat::vec.280", double, double, i32, [4 x i8], i64, i64, i8, i8, [6 x i8] }>
%"class.std::unique_ptr.270" = type { %"struct.std::__uniq_ptr_data.271" }
%"struct.std::__uniq_ptr_data.271" = type { %"class.std::__uniq_ptr_impl.272" }
%"class.std::__uniq_ptr_impl.272" = type { %"class.std::tuple.273" }
%"class.std::tuple.273" = type { %"struct.std::_Tuple_impl.274" }
%"struct.std::_Tuple_impl.274" = type { %"struct.std::_Head_base.277" }
%"struct.std::_Head_base.277" = type { ptr }
%"class.cvc5::internal::Minisat::vec" = type { ptr, i32, i32 }
%"class.cvc5::internal::Minisat::vec.281" = type { ptr, i32, i32 }
%"class.cvc5::internal::Minisat::vec.282" = type { ptr, i32, i32 }
%"class.cvc5::internal::Minisat::OccLists" = type { %"class.cvc5::internal::Minisat::vec.283", %"class.cvc5::internal::Minisat::vec.284", %"class.cvc5::internal::Minisat::vec.280", %"struct.cvc5::internal::Minisat::Solver::WatcherDeleted" }
%"class.cvc5::internal::Minisat::vec.283" = type { ptr, i32, i32 }
%"struct.cvc5::internal::Minisat::Solver::WatcherDeleted" = type { ptr }
%"class.cvc5::internal::Minisat::vec.279" = type { ptr, i32, i32 }
%"class.cvc5::internal::Minisat::vec.285" = type { ptr, i32, i32 }
%"class.cvc5::internal::Minisat::vec.286" = type { ptr, i32, i32 }
%"class.cvc5::internal::Minisat::Heap" = type { %"struct.cvc5::internal::Minisat::Solver::VarOrderLt", %"class.cvc5::internal::Minisat::vec.285", %"class.cvc5::internal::Minisat::vec.285" }
%"struct.cvc5::internal::Minisat::Solver::VarOrderLt" = type { ptr }
%"class.cvc5::internal::Minisat::ClauseAllocator" = type { %"class.cvc5::internal::Minisat::RegionAllocator.base", i8, [3 x i8] }
%"class.cvc5::internal::Minisat::RegionAllocator.base" = type <{ ptr, i32, i32, i32 }>
%"class.cvc5::internal::Minisat::vec.278" = type { ptr, i32, i32 }
%"class.cvc5::internal::Minisat::vec.284" = type { ptr, i32, i32 }

@_ZN4cvc58internal4propL15undefSatLiteralE = internal global %"class.cvc5::internal::prop::SatLiteral" zeroinitializer, align 8
@_ZN4cvc58internal7MinisatL9lit_UndefE = internal constant %"struct.cvc5::internal::Minisat::Lit" { i32 -2 }, align 4

; Function Attrs: mustprogress nounwind uwtable
define linkonce_odr hidden noundef zeroext i1 @_ZNK4cvc58internal7Minisat5lbooleqES2_(ptr noundef nonnull align 1 dereferenceable(1) %this, i8 %b.coerce) #4 comdat align 2 {
entry:
  %b = alloca %"class.cvc5::internal::Minisat::lbool", align 1
  %this.addr = alloca ptr, align 8
  %coerce.dive = getelementptr inbounds %"class.cvc5::internal::Minisat::lbool", ptr %b, i32 0, i32 0
  store i8 %b.coerce, ptr %coerce.dive, align 1
  store ptr %this, ptr %this.addr, align 8
  %this1 = load ptr, ptr %this.addr, align 8
  %value = getelementptr inbounds %"class.cvc5::internal::Minisat::lbool", ptr %b, i32 0, i32 0
  %0 = load i8, ptr %value, align 1
  %conv = zext i8 %0 to i32
  %and = and i32 %conv, 2
  %value2 = getelementptr inbounds %"class.cvc5::internal::Minisat::lbool", ptr %this1, i32 0, i32 0
  %1 = load i8, ptr %value2, align 1
  %conv3 = zext i8 %1 to i32
  %and4 = and i32 %conv3, 2
  %and5 = and i32 %and, %and4
  %value6 = getelementptr inbounds %"class.cvc5::internal::Minisat::lbool", ptr %b, i32 0, i32 0
  %2 = load i8, ptr %value6, align 1
  %conv7 = zext i8 %2 to i32
  %and8 = and i32 %conv7, 2
  %tobool = icmp ne i32 %and8, 0
  %lnot = xor i1 %tobool, true
  %conv9 = zext i1 %lnot to i32
  %value10 = getelementptr inbounds %"class.cvc5::internal::Minisat::lbool", ptr %this1, i32 0, i32 0
  %3 = load i8, ptr %value10, align 1
  %conv11 = zext i8 %3 to i32
  %value12 = getelementptr inbounds %"class.cvc5::internal::Minisat::lbool", ptr %b, i32 0, i32 0
  %4 = load i8, ptr %value12, align 1
  %conv13 = zext i8 %4 to i32
  %cmp = icmp eq i32 %conv11, %conv13
  %conv14 = zext i1 %cmp to i32
  %and15 = and i32 %conv9, %conv14
  %or = or i32 %and5, %and15
  %tobool16 = icmp ne i32 %or, 0
  ret i1 %tobool16
}

; Function Attrs: mustprogress nounwind uwtable
define linkonce_odr hidden void @_ZN4cvc58internal7Minisat5lboolC2Eh(ptr noundef nonnull align 1 dereferenceable(1) %this, i8 noundef zeroext %v) unnamed_addr #4 comdat align 2 {
entry:
  %this.addr = alloca ptr, align 8
  %v.addr = alloca i8, align 1
  store ptr %this, ptr %this.addr, align 8
  store i8 %v, ptr %v.addr, align 1
  %this1 = load ptr, ptr %this.addr, align 8
  %value = getelementptr inbounds %"class.cvc5::internal::Minisat::lbool", ptr %this1, i32 0, i32 0
  %0 = load i8, ptr %v.addr, align 1
  store i8 %0, ptr %value, align 1
  ret void
}

; Function Attrs: mustprogress uwtable
define linkonce_odr hidden i8 @_ZNK4cvc58internal7Minisat5lbooleoEb(ptr noundef nonnull align 1 dereferenceable(1) %this, i1 noundef zeroext %b) #5 comdat align 2 {
entry:
  %retval = alloca %"class.cvc5::internal::Minisat::lbool", align 1
  %this.addr = alloca ptr, align 8
  %b.addr = alloca i8, align 1
  store ptr %this, ptr %this.addr, align 8
  %frombool = zext i1 %b to i8
  store i8 %frombool, ptr %b.addr, align 1
  %this1 = load ptr, ptr %this.addr, align 8
  %value = getelementptr inbounds %"class.cvc5::internal::Minisat::lbool", ptr %this1, i32 0, i32 0
  %0 = load i8, ptr %value, align 1
  %conv = zext i8 %0 to i32
  %1 = load i8, ptr %b.addr, align 1
  %tobool = trunc i8 %1 to i1
  %conv2 = zext i1 %tobool to i8
  %conv3 = zext i8 %conv2 to i32
  %xor = xor i32 %conv, %conv3
  %conv4 = trunc i32 %xor to i8
  call void @_ZN4cvc58internal7Minisat5lboolC2Eh(ptr noundef nonnull align 1 dereferenceable(1) %retval, i8 noundef zeroext %conv4)
  %coerce.dive = getelementptr inbounds %"class.cvc5::internal::Minisat::lbool", ptr %retval, i32 0, i32 0
  %2 = load i8, ptr %coerce.dive, align 1
  ret i8 %2
}

; Function Attrs: mustprogress nounwind uwtable
define linkonce_odr hidden noundef zeroext i1 @_ZN4cvc58internal7Minisat4signENS1_3LitE(i32 %p.coerce) #4 comdat {
entry:
  %p = alloca %"struct.cvc5::internal::Minisat::Lit", align 4
  %coerce.dive = getelementptr inbounds %"struct.cvc5::internal::Minisat::Lit", ptr %p, i32 0, i32 0
  store i32 %p.coerce, ptr %coerce.dive, align 4
  %x = getelementptr inbounds %"struct.cvc5::internal::Minisat::Lit", ptr %p, i32 0, i32 0
  %0 = load i32, ptr %x, align 4
  %and = and i32 %0, 1
  %tobool = icmp ne i32 %and, 0
  ret i1 %tobool
}

; Function Attrs: mustprogress nounwind uwtable
define linkonce_odr hidden noundef nonnull align 1 dereferenceable(1) ptr @_ZNK4cvc58internal7Minisat3vecINS1_5lboolEEixEi(ptr noundef nonnull align 8 dereferenceable(16) %this, i32 noundef %index) #4 comdat align 2 {
entry:
  %this.addr = alloca ptr, align 8
  %index.addr = alloca i32, align 4
  store ptr %this, ptr %this.addr, align 8
  store i32 %index, ptr %index.addr, align 4
  %this1 = load ptr, ptr %this.addr, align 8
  %data = getelementptr inbounds %"class.cvc5::internal::Minisat::vec.279", ptr %this1, i32 0, i32 0
  %0 = load ptr, ptr %data, align 8
  %1 = load i32, ptr %index.addr, align 4
  %idxprom = sext i32 %1 to i64
  %arrayidx = getelementptr inbounds %"class.cvc5::internal::Minisat::lbool", ptr %0, i64 %idxprom
  ret ptr %arrayidx
}

; Function Attrs: mustprogress nounwind uwtable
define linkonce_odr hidden noundef i32 @_ZN4cvc58internal7Minisat3varENS1_3LitE(i32 %p.coerce) #4 comdat {
entry:
  %p = alloca %"struct.cvc5::internal::Minisat::Lit", align 4
  %coerce.dive = getelementptr inbounds %"struct.cvc5::internal::Minisat::Lit", ptr %p, i32 0, i32 0
  store i32 %p.coerce, ptr %coerce.dive, align 4
  %x = getelementptr inbounds %"struct.cvc5::internal::Minisat::Lit", ptr %p, i32 0, i32 0
  %0 = load i32, ptr %x, align 4
  %shr = ashr i32 %0, 1
  ret i32 %shr
}

; Function Attrs: mustprogress nounwind uwtable
define linkonce_odr hidden i32 @_ZN4cvc58internal7Minisat5mkLitEib(i32 noundef %var, i1 noundef zeroext %sign) #4 comdat {
entry:
  %retval = alloca %"struct.cvc5::internal::Minisat::Lit", align 4
  %var.addr = alloca i32, align 4
  %sign.addr = alloca i8, align 1
  store i32 %var, ptr %var.addr, align 4
  %frombool = zext i1 %sign to i8
  store i8 %frombool, ptr %sign.addr, align 1
  %0 = load i32, ptr %var.addr, align 4
  %1 = load i32, ptr %var.addr, align 4
  %add = add nsw i32 %0, %1
  %2 = load i8, ptr %sign.addr, align 1
  %tobool = trunc i8 %2 to i1
  %conv = zext i1 %tobool to i32
  %add1 = add nsw i32 %add, %conv
  %x = getelementptr inbounds %"struct.cvc5::internal::Minisat::Lit", ptr %retval, i32 0, i32 0
  store i32 %add1, ptr %x, align 4
  %coerce.dive = getelementptr inbounds %"struct.cvc5::internal::Minisat::Lit", ptr %retval, i32 0, i32 0
  %3 = load i32, ptr %coerce.dive, align 4
  ret i32 %3
}

; Function Attrs: mustprogress nounwind uwtable
define linkonce_odr hidden noundef zeroext i1 @_ZNK4cvc58internal4prop10SatLiteral9isNegatedEv(ptr noundef nonnull align 8 dereferenceable(8) %this) #4 comdat align 2 {
entry:
  %this.addr = alloca ptr, align 8
  store ptr %this, ptr %this.addr, align 8
  %this1 = load ptr, ptr %this.addr, align 8
  %d_value = getelementptr inbounds %"class.cvc5::internal::prop::SatLiteral", ptr %this1, i32 0, i32 0
  %0 = load i64, ptr %d_value, align 8
  %and = and i64 %0, 1
  %tobool = icmp ne i64 %and, 0
  ret i1 %tobool
}

; Function Attrs: mustprogress nounwind uwtable
define linkonce_odr hidden noundef i64 @_ZNK4cvc58internal4prop10SatLiteral14getSatVariableEv(ptr noundef nonnull align 8 dereferenceable(8) %this) #4 comdat align 2 {
entry:
  %this.addr = alloca ptr, align 8
  store ptr %this, ptr %this.addr, align 8
  %this1 = load ptr, ptr %this.addr, align 8
  %d_value = getelementptr inbounds %"class.cvc5::internal::prop::SatLiteral", ptr %this1, i32 0, i32 0
  %0 = load i64, ptr %d_value, align 8
  %shr = lshr i64 %0, 1
  ret i64 %shr
}

; Function Attrs: mustprogress nounwind uwtable
define linkonce_odr hidden noundef zeroext i1 @_ZNK4cvc58internal4prop10SatLiteraleqERKS2_(ptr noundef nonnull align 8 dereferenceable(8) %this, ptr noundef nonnull align 8 dereferenceable(8) %other) #4 comdat align 2 {
entry:
  %this.addr = alloca ptr, align 8
  %other.addr = alloca ptr, align 8
  store ptr %this, ptr %this.addr, align 8
  store ptr %other, ptr %other.addr, align 8
  %this1 = load ptr, ptr %this.addr, align 8
  %d_value = getelementptr inbounds %"class.cvc5::internal::prop::SatLiteral", ptr %this1, i32 0, i32 0
  %0 = load i64, ptr %d_value, align 8
  %1 = load ptr, ptr %other.addr, align 8
  %d_value2 = getelementptr inbounds %"class.cvc5::internal::prop::SatLiteral", ptr %1, i32 0, i32 0
  %2 = load i64, ptr %d_value2, align 8
  %cmp = icmp eq i64 %0, %2
  ret i1 %cmp
}

; Function Attrs: mustprogress uwtable
define hidden noundef i32 @_ZN4cvc58internal4prop16MinisatSatSolver17toSatLiteralValueENS0_7Minisat5lboolE(i8 %res.coerce) #5 align 2 {
entry:
  %retval = alloca i32, align 4
  %res = alloca %"class.cvc5::internal::Minisat::lbool", align 1
  %agg.tmp = alloca %"class.cvc5::internal::Minisat::lbool", align 1
  %agg.tmp2 = alloca %"class.cvc5::internal::Minisat::lbool", align 1
  %coerce.dive = getelementptr inbounds %"class.cvc5::internal::Minisat::lbool", ptr %res, i32 0, i32 0
  store i8 %res.coerce, ptr %coerce.dive, align 1
  call void @_ZN4cvc58internal7Minisat5lboolC2Eh(ptr noundef nonnull align 1 dereferenceable(1) %agg.tmp, i8 noundef zeroext 0)
  %coerce.dive1 = getelementptr inbounds %"class.cvc5::internal::Minisat::lbool", ptr %agg.tmp, i32 0, i32 0
  %0 = load i8, ptr %coerce.dive1, align 1
  %call = call noundef zeroext i1 @_ZNK4cvc58internal7Minisat5lbooleqES2_(ptr noundef nonnull align 1 dereferenceable(1) %res, i8 %0)
  br i1 %call, label %if.then, label %if.end

if.then:                                          ; preds = %entry
  store i32 1, ptr %retval, align 4
  br label %return

if.end:                                           ; preds = %entry
  call void @_ZN4cvc58internal7Minisat5lboolC2Eh(ptr noundef nonnull align 1 dereferenceable(1) %agg.tmp2, i8 noundef zeroext 2)
  %coerce.dive3 = getelementptr inbounds %"class.cvc5::internal::Minisat::lbool", ptr %agg.tmp2, i32 0, i32 0
  %1 = load i8, ptr %coerce.dive3, align 1
  %call4 = call noundef zeroext i1 @_ZNK4cvc58internal7Minisat5lbooleqES2_(ptr noundef nonnull align 1 dereferenceable(1) %res, i8 %1)
  br i1 %call4, label %if.then5, label %if.end6

if.then5:                                         ; preds = %if.end
  store i32 0, ptr %retval, align 4
  br label %return

if.end6:                                          ; preds = %if.end
  store i32 2, ptr %retval, align 4
  br label %return

return:                                           ; preds = %if.end6, %if.then5, %if.then
  %2 = load i32, ptr %retval, align 4
  ret i32 %2
}

; Function Attrs: mustprogress uwtable
define linkonce_odr hidden i8 @_ZNK4cvc58internal7Minisat6Solver10modelValueENS1_3LitE(ptr noundef nonnull align 8 dereferenceable(850) %this, i32 %p.coerce) #5 comdat align 2 {
entry:
  %retval = alloca %"class.cvc5::internal::Minisat::lbool", align 1
  %p = alloca %"struct.cvc5::internal::Minisat::Lit", align 4
  %this.addr = alloca ptr, align 8
  %agg.tmp = alloca %"struct.cvc5::internal::Minisat::Lit", align 4
  %agg.tmp4 = alloca %"struct.cvc5::internal::Minisat::Lit", align 4
  %coerce.dive = getelementptr inbounds %"struct.cvc5::internal::Minisat::Lit", ptr %p, i32 0, i32 0
  store i32 %p.coerce, ptr %coerce.dive, align 4
  store ptr %this, ptr %this.addr, align 8
  %this1 = load ptr, ptr %this.addr, align 8
  %model = getelementptr inbounds %"class.cvc5::internal::Minisat::Solver", ptr %this1, i32 0, i32 15
  call void @llvm.memcpy.p0.p0.i64(ptr align 4 %agg.tmp, ptr align 4 %p, i64 4, i1 false)
  %coerce.dive2 = getelementptr inbounds %"struct.cvc5::internal::Minisat::Lit", ptr %agg.tmp, i32 0, i32 0
  %0 = load i32, ptr %coerce.dive2, align 4
  %call = call noundef i32 @_ZN4cvc58internal7Minisat3varENS1_3LitE(i32 %0)
  %call3 = call noundef nonnull align 1 dereferenceable(1) ptr @_ZNK4cvc58internal7Minisat3vecINS1_5lboolEEixEi(ptr noundef nonnull align 8 dereferenceable(16) %model, i32 noundef %call)
  call void @llvm.memcpy.p0.p0.i64(ptr align 4 %agg.tmp4, ptr align 4 %p, i64 4, i1 false)
  %coerce.dive5 = getelementptr inbounds %"struct.cvc5::internal::Minisat::Lit", ptr %agg.tmp4, i32 0, i32 0
  %1 = load i32, ptr %coerce.dive5, align 4
  %call6 = call noundef zeroext i1 @_ZN4cvc58internal7Minisat4signENS1_3LitE(i32 %1)
  %call7 = call i8 @_ZNK4cvc58internal7Minisat5lbooleoEb(ptr noundef nonnull align 1 dereferenceable(1) %call3, i1 noundef zeroext %call6)
  %coerce.dive8 = getelementptr inbounds %"class.cvc5::internal::Minisat::lbool", ptr %retval, i32 0, i32 0
  store i8 %call7, ptr %coerce.dive8, align 1
  %coerce.dive9 = getelementptr inbounds %"class.cvc5::internal::Minisat::lbool", ptr %retval, i32 0, i32 0
  %2 = load i8, ptr %coerce.dive9, align 1
  ret i8 %2
}

; Function Attrs: mustprogress uwtable
define hidden i32 @_ZN4cvc58internal4prop16MinisatSatSolver12toMinisatLitENS1_10SatLiteralE(i64 %lit.coerce) #5 align 2 {
entry:
  %retval = alloca %"struct.cvc5::internal::Minisat::Lit", align 4
  %lit = alloca %"class.cvc5::internal::prop::SatLiteral", align 8
  %coerce.dive = getelementptr inbounds %"class.cvc5::internal::prop::SatLiteral", ptr %lit, i32 0, i32 0
  store i64 %lit.coerce, ptr %coerce.dive, align 8
  %call = call noundef zeroext i1 @_ZNK4cvc58internal4prop10SatLiteraleqERKS2_(ptr noundef nonnull align 8 dereferenceable(8) %lit, ptr noundef nonnull align 8 dereferenceable(8) @_ZN4cvc58internal4propL15undefSatLiteralE)
  br i1 %call, label %if.then, label %if.end

if.then:                                          ; preds = %entry
  call void @llvm.memcpy.p0.p0.i64(ptr align 4 %retval, ptr align 4 @_ZN4cvc58internal7MinisatL9lit_UndefE, i64 4, i1 false)
  br label %return

if.end:                                           ; preds = %entry
  %call1 = call noundef i64 @_ZNK4cvc58internal4prop10SatLiteral14getSatVariableEv(ptr noundef nonnull align 8 dereferenceable(8) %lit)
  %conv = trunc i64 %call1 to i32
  %call2 = call noundef zeroext i1 @_ZNK4cvc58internal4prop10SatLiteral9isNegatedEv(ptr noundef nonnull align 8 dereferenceable(8) %lit)
  %call3 = call i32 @_ZN4cvc58internal7Minisat5mkLitEib(i32 noundef %conv, i1 noundef zeroext %call2)
  %coerce.dive4 = getelementptr inbounds %"struct.cvc5::internal::Minisat::Lit", ptr %retval, i32 0, i32 0
  store i32 %call3, ptr %coerce.dive4, align 4
  br label %return

return:                                           ; preds = %if.end, %if.then
  %coerce.dive5 = getelementptr inbounds %"struct.cvc5::internal::Minisat::Lit", ptr %retval, i32 0, i32 0
  %0 = load i32, ptr %coerce.dive5, align 4
  ret i32 %0
}

; Function Attrs: mustprogress uwtable
define hidden noundef i32 @_ZN4cvc58internal4prop16MinisatSatSolver10modelValueENS1_10SatLiteralE(ptr noundef nonnull align 8 dereferenceable(168) %this, i64 %l.coerce) unnamed_addr #5 align 2 {
entry:
  %l = alloca %"class.cvc5::internal::prop::SatLiteral", align 8
  %this.addr = alloca ptr, align 8
  %agg.tmp = alloca %"class.cvc5::internal::Minisat::lbool", align 1
  %agg.tmp2 = alloca %"struct.cvc5::internal::Minisat::Lit", align 4
  %agg.tmp3 = alloca %"class.cvc5::internal::prop::SatLiteral", align 8
  %coerce.dive = getelementptr inbounds %"class.cvc5::internal::prop::SatLiteral", ptr %l, i32 0, i32 0
  store i64 %l.coerce, ptr %coerce.dive, align 8
  store ptr %this, ptr %this.addr, align 8
  %this1 = load ptr, ptr %this.addr, align 8
  %d_minisat = getelementptr inbounds %"class.cvc5::internal::prop::MinisatSatSolver", ptr %this1, i32 0, i32 2
  %0 = load ptr, ptr %d_minisat, align 8
  call void @llvm.memcpy.p0.p0.i64(ptr align 8 %agg.tmp3, ptr align 8 %l, i64 8, i1 false)
  %coerce.dive4 = getelementptr inbounds %"class.cvc5::internal::prop::SatLiteral", ptr %agg.tmp3, i32 0, i32 0
  %1 = load i64, ptr %coerce.dive4, align 8
  %call = call i32 @_ZN4cvc58internal4prop16MinisatSatSolver12toMinisatLitENS1_10SatLiteralE(i64 %1)
  %coerce.dive5 = getelementptr inbounds %"struct.cvc5::internal::Minisat::Lit", ptr %agg.tmp2, i32 0, i32 0
  store i32 %call, ptr %coerce.dive5, align 4
  %coerce.dive6 = getelementptr inbounds %"struct.cvc5::internal::Minisat::Lit", ptr %agg.tmp2, i32 0, i32 0
  %2 = load i32, ptr %coerce.dive6, align 4
  %call7 = call i8 @_ZNK4cvc58internal7Minisat6Solver10modelValueENS1_3LitE(ptr noundef nonnull align 8 dereferenceable(850) %0, i32 %2)
  %coerce.dive8 = getelementptr inbounds %"class.cvc5::internal::Minisat::lbool", ptr %agg.tmp, i32 0, i32 0
  store i8 %call7, ptr %coerce.dive8, align 1
  %coerce.dive9 = getelementptr inbounds %"class.cvc5::internal::Minisat::lbool", ptr %agg.tmp, i32 0, i32 0
  %3 = load i8, ptr %coerce.dive9, align 1
  %call10 = call noundef i32 @_ZN4cvc58internal4prop16MinisatSatSolver17toSatLiteralValueENS0_7Minisat5lboolE(i8 %3)
  ret i32 %call10
}